; Function Attrs: mustprogress uwtable
define internal void @_ZL25characterIteratorSetStateP13UCharIteratorjP10UErrorCode(ptr noundef readonly %0, i32 noundef %1, ptr noundef %2) #0 {
  %4 = icmp eq ptr %2, null
  br i1 %4, label %28, label %5

5:                                                ; preds = %3
  %6 = load i32, ptr %2, align 4, !tbaa !24
  %7 = icmp slt i32 %6, 1
  br i1 %7, label %8, label %28

8:                                                ; preds = %5
  %9 = icmp eq ptr %0, null
  br i1 %9, label %13, label %10

10:                                               ; preds = %8
  %11 = load ptr, ptr %0, align 8, !tbaa !10
  %12 = icmp eq ptr %11, null
  br i1 %12, label %13, label %14

13:                                               ; preds = %10, %8
  store i32 1, ptr %2, align 4, !tbaa !24
  br label %28

14:                                               ; preds = %10
  %15 = getelementptr inbounds nuw i8, ptr %11, i64 16
  %16 = load i32, ptr %15, align 8, !tbaa !31
  %17 = icmp slt i32 %1, %16
  br i1 %17, label %22, label %18

18:                                               ; preds = %14
  %19 = getelementptr inbounds nuw i8, ptr %11, i64 20
  %20 = load i32, ptr %19, align 4, !tbaa !36
  %21 = icmp slt i32 %20, %1
  br i1 %21, label %22, label %23

22:                                               ; preds = %18, %14
  store i32 8, ptr %2, align 4, !tbaa !24
  br label %28

23:                                               ; preds = %18
  %24 = load ptr, ptr %11, align 8, !tbaa !17
  %25 = getelementptr inbounds nuw i8, ptr %24, i64 120
  %26 = load ptr, ptr %25, align 8
  %27 = tail call noundef zeroext i16 %26(ptr noundef nonnull align 8 dereferenceable(24) %11, i32 noundef %1)
  br label %28

28:                                               ; preds = %13, %23, %22, %3, %5
  ret void
}